; Function Attrs: nounwind uwtable
define internal i32 @pg_popcount32_choose(i32 noundef %0) #0 {
  %2 = tail call { i32, i32, i32, i32 } asm "  xchgq  %rbx,${1:q}\0A  cpuid\0A  xchgq  %rbx,${1:q}", "={ax},=r,={cx},={dx},0,~{dirflag},~{fpsr},~{flags}"(i32 0) #6, !srcloc !3
  %3 = extractvalue { i32, i32, i32, i32 } %2, 0
  %4 = icmp eq i32 %3, 0
  br i1 %4, label %.thread21.i, label %pg_popcount_available.exit.i

pg_popcount_available.exit.i:                     ; preds = %1
  %5 = tail call { i32, i32, i32, i32 } asm "  xchgq  %rbx,${1:q}\0A  cpuid\0A  xchgq  %rbx,${1:q}", "={ax},=r,={cx},={dx},0,~{dirflag},~{fpsr},~{flags}"(i32 1) #6, !srcloc !4
  %.fr.i = freeze { i32, i32, i32, i32 } %5
  %6 = extractvalue { i32, i32, i32, i32 } %.fr.i, 2
  %7 = and i32 %6, 8388608
  %.not.i = icmp eq i32 %7, 0
  br i1 %.not.i, label %8, label %.thread21.i

8:                                                ; preds = %pg_popcount_available.exit.i
  br label %.thread21.i

.thread21.i:                                      ; preds = %8, %pg_popcount_available.exit.i, %1
  %9 = phi ptr [ @pg_popcount_slow, %1 ], [ @pg_popcount_slow, %8 ], [ @pg_popcount_fast, %pg_popcount_available.exit.i ]
  %10 = phi ptr [ @pg_popcount32_slow, %1 ], [ @pg_popcount32_slow, %8 ], [ @pg_popcount32_fast, %pg_popcount_available.exit.i ]
  %11 = phi ptr [ @pg_popcount64_slow, %1 ], [ @pg_popcount64_slow, %8 ], [ @pg_popcount64_fast, %pg_popcount_available.exit.i ]
  %12 = phi ptr [ @pg_popcount_masked_slow, %1 ], [ @pg_popcount_masked_slow, %8 ], [ @pg_popcount_masked_fast, %pg_popcount_available.exit.i ]
  store ptr %10, ptr @pg_popcount32, align 8
  store ptr %11, ptr @pg_popcount64, align 8
  store ptr %9, ptr @pg_popcount_optimized, align 8
  store ptr %12, ptr @pg_popcount_masked_optimized, align 8
  %13 = tail call zeroext i1 @pg_popcount_avx512_available() #7
  br i1 %13, label %14, label %choose_popcount_functions.exit

14:                                               ; preds = %.thread21.i
  store ptr @pg_popcount_avx512, ptr @pg_popcount_optimized, align 8
  store ptr @pg_popcount_masked_avx512, ptr @pg_popcount_masked_optimized, align 8
  br label %choose_popcount_functions.exit

choose_popcount_functions.exit:                   ; preds = %.thread21.i, %14
  %15 = load ptr, ptr @pg_popcount32, align 8
  %16 = tail call i32 %15(i32 noundef %0) #7
  ret i32 %16
}